; Function Attrs: mustprogress uwtable
define void @_ZN7Minisat6Solver8toDimacsEPKcRKNS_3vecINS_3LitEiEE(ptr nocapture noundef nonnull readonly align 8 dereferenceable(857) %0, ptr noundef %1, ptr nocapture noundef nonnull readonly align 8 dereferenceable(16) %2) local_unnamed_addr #2 align 2 {
  %4 = tail call noalias ptr @fopen(ptr noundef %1, ptr noundef nonnull @.str.47)
  %5 = icmp eq ptr %4, null
  br i1 %5, label %6, label %9

6:                                                ; preds = %3
  %7 = load ptr, ptr @stderr, align 8
  %8 = tail call i32 (ptr, ptr, ...) @fprintf(ptr noundef %7, ptr noundef nonnull @.str.48, ptr noundef %1) #30
  tail call void @exit(i32 noundef 1) #31
  unreachable

9:                                                ; preds = %3
  tail call void @_ZN7Minisat6Solver8toDimacsEP8_IO_FILERKNS_3vecINS_3LitEiEE(ptr noundef nonnull align 8 dereferenceable(857) %0, ptr noundef nonnull %4, ptr noundef nonnull align 8 dereferenceable(16) %2)
  %10 = tail call i32 @fclose(ptr noundef nonnull %4)
  ret void
}